; Function Attrs: mustprogress uwtable
define void @rocksdb_transaction_prepare(ptr noundef readonly captures(none) %0, ptr noundef captures(none) %1) local_unnamed_addr #0 personality ptr @__gxx_personality_v0 {
  %3 = alloca %"class.rocksdb::Status", align 8
  call void @llvm.lifetime.start.p0(i64 16, ptr nonnull %3) #43
  %4 = load ptr, ptr %0, align 8, !tbaa !1216
  %5 = load ptr, ptr %4, align 8, !tbaa !23
  %6 = getelementptr inbounds nuw i8, ptr %5, i64 56
  %7 = load ptr, ptr %6, align 8
  call void %7(ptr dead_on_unwind nonnull writable sret(%"class.rocksdb::Status") align 8 %3, ptr noundef nonnull align 8 dereferenceable(64) %4)
  %8 = invoke fastcc noundef zeroext i1 @_ZL9SaveErrorPPcRKN7rocksdb6StatusE(ptr noundef %1, ptr noundef nonnull align 8 dereferenceable(16) %3)
          to label %9 unwind label %12

9:                                                ; preds = %2
  %10 = getelementptr inbounds nuw i8, ptr %3, i64 8
  %11 = load ptr, ptr %10, align 8, !tbaa !25
  %.not.i.i = icmp eq ptr %11, null
  br i1 %.not.i.i, label %_ZN7rocksdb6StatusD2Ev.exit, label %_ZNKSt14default_deleteIA_KcEclIS0_EENSt9enable_ifIXsr14is_convertibleIPA_T_PS1_EE5valueEvE4typeEPS5_.exit.i.i

_ZNKSt14default_deleteIA_KcEclIS0_EENSt9enable_ifIXsr14is_convertibleIPA_T_PS1_EE5valueEvE4typeEPS5_.exit.i.i: ; preds = %9
  call void @_ZdaPv(ptr noundef nonnull %11) #45
  br label %_ZN7rocksdb6StatusD2Ev.exit

_ZN7rocksdb6StatusD2Ev.exit:                      ; preds = %9, %_ZNKSt14default_deleteIA_KcEclIS0_EENSt9enable_ifIXsr14is_convertibleIPA_T_PS1_EE5valueEvE4typeEPS5_.exit.i.i
  call void @llvm.lifetime.end.p0(i64 16, ptr nonnull %3) #43
  ret void

12:                                               ; preds = %2
  %13 = landingpad { ptr, i32 }
          cleanup
  %14 = getelementptr inbounds nuw i8, ptr %3, i64 8
  %15 = load ptr, ptr %14, align 8, !tbaa !25
  %.not.i.i3 = icmp eq ptr %15, null
  br i1 %.not.i.i3, label %_ZN7rocksdb6StatusD2Ev.exit5, label %_ZNKSt14default_deleteIA_KcEclIS0_EENSt9enable_ifIXsr14is_convertibleIPA_T_PS1_EE5valueEvE4typeEPS5_.exit.i.i4

_ZNKSt14default_deleteIA_KcEclIS0_EENSt9enable_ifIXsr14is_convertibleIPA_T_PS1_EE5valueEvE4typeEPS5_.exit.i.i4: ; preds = %12
  call void @_ZdaPv(ptr noundef nonnull %15) #45
  br label %_ZN7rocksdb6StatusD2Ev.exit5

_ZN7rocksdb6StatusD2Ev.exit5:                     ; preds = %12, %_ZNKSt14default_deleteIA_KcEclIS0_EENSt9enable_ifIXsr14is_convertibleIPA_T_PS1_EE5valueEvE4typeEPS5_.exit.i.i4
  call void @llvm.lifetime.end.p0(i64 16, ptr nonnull %3) #43
  resume { ptr, i32 } %13
}